; Function Attrs: mustprogress uwtable
define void @_ZN7rocksdb19DeleteFilesInRangesEPNS_2DBEPNS_18ColumnFamilyHandleEPKNS_8RangePtrEmb(ptr noalias sret(%"class.rocksdb::Status") align 8 %agg.result, ptr noundef %db, ptr noundef %column_family, ptr noundef %ranges, i64 noundef %n, i1 noundef zeroext %include_end) local_unnamed_addr #3 {
entry:
  %vtable = load ptr, ptr %db, align 8
  %vfn = getelementptr inbounds i8, ptr %vtable, i64 1176
  %0 = load ptr, ptr %vfn, align 8
  %call = tail call noundef ptr %0(ptr noundef nonnull align 8 dereferenceable(8) %db)
  tail call void @_ZN7rocksdb6DBImpl19DeleteFilesInRangesEPNS_18ColumnFamilyHandleEPKNS_8RangePtrEmb(ptr sret(%"class.rocksdb::Status") align 8 %agg.result, ptr noundef nonnull align 64 dereferenceable(6660) %call, ptr noundef %column_family, ptr noundef %ranges, i64 noundef %n, i1 noundef zeroext %include_end)
  ret void
}